target datalayout = "e-m:e-p270:32:32-p271:32:32-p272:64:64-i64:64-i128:128-f80:128-n8:16:32:64-S128"
target triple = "x86_64-pc-linux-gnu"

@stderr = external global ptr, align 8
@.str.8 = private unnamed_addr constant [97 x i8] c"ERROR: This tool requires libclamav with functionality level %u or higher (current f-level: %u)\0A\00", align 1

; Function Attrs: nounwind uwtable
define i32 @check_flevel() #0 {
  %1 = alloca i32, align 4
  %2 = call i32 @cl_retflevel()
  %3 = icmp ult i32 %2, 210
  br i1 %3, label %4, label %8

4:                                                ; preds = %0
  %5 = load ptr, ptr @stderr, align 8
  %6 = call i32 @cl_retflevel()
  %7 = call i32 (ptr, ptr, ...) @fprintf(ptr noundef %5, ptr noundef @.str.8, i32 noundef 210, i32 noundef %6) #10
  store i32 1, ptr %1, align 4
  br label %9

8:                                                ; preds = %0
  store i32 0, ptr %1, align 4
  br label %9

9:                                                ; preds = %8, %4
  %10 = load i32, ptr %1, align 4
  ret i32 %10
}