; Function Attrs: nounwind uwtable
define noundef i32 @check_flevel() local_unnamed_addr #1 {
  %1 = tail call i32 @cl_retflevel() #18
  %2 = icmp ult i32 %1, 210
  br i1 %2, label %3, label %7

3:                                                ; preds = %0
  %4 = load ptr, ptr @stderr, align 8
  %5 = tail call i32 @cl_retflevel() #18
  %6 = tail call i32 (ptr, ptr, ...) @fprintf(ptr noundef %4, ptr noundef nonnull @.str.8, i32 noundef 210, i32 noundef %5) #22
  br label %7

7:                                                ; preds = %0, %3
  %.0 = phi i32 [ 1, %3 ], [ 0, %0 ]
  ret i32 %.0
}